; Function Attrs: uwtable
define void @_ZThn16_NK15FilterIcpPlugin10filterInfoEi(ptr dead_on_unwind noalias writable sret(%class.QString) align 8 %0, ptr nocapture noundef readnone %1, i32 noundef %2) unnamed_addr #13 align 2 {
  tail call void @llvm.experimental.noalias.scope.decl(metadata !24)
  switch i32 %2, label %7 [
    i32 0, label %4
    i32 1, label %5
    i32 2, label %6
  ]

4:                                                ; preds = %3
  tail call void @_ZNK11QMetaObject2trEPKcS1_i(ptr dead_on_unwind writable sret(%class.QString) align 8 %0, ptr noundef nonnull align 8 dereferenceable(48) @_ZN15FilterIcpPlugin16staticMetaObjectE, ptr noundef nonnull @.str.16, ptr noundef null, i32 noundef -1)
  br label %_ZNK15FilterIcpPlugin10filterInfoEi.exit

5:                                                ; preds = %3
  tail call void @_ZNK11QMetaObject2trEPKcS1_i(ptr dead_on_unwind writable sret(%class.QString) align 8 %0, ptr noundef nonnull align 8 dereferenceable(48) @_ZN15FilterIcpPlugin16staticMetaObjectE, ptr noundef nonnull @.str.17, ptr noundef null, i32 noundef -1)
  br label %_ZNK15FilterIcpPlugin10filterInfoEi.exit

6:                                                ; preds = %3
  tail call void @_ZNK11QMetaObject2trEPKcS1_i(ptr dead_on_unwind writable sret(%class.QString) align 8 %0, ptr noundef nonnull align 8 dereferenceable(48) @_ZN15FilterIcpPlugin16staticMetaObjectE, ptr noundef nonnull @.str.18, ptr noundef null, i32 noundef -1)
  br label %_ZNK15FilterIcpPlugin10filterInfoEi.exit

7:                                                ; preds = %3
  %8 = tail call noundef ptr @_ZN7QString16fromAscii_helperEPKci(ptr noundef nonnull @.str.19, i32 noundef 14), !noalias !24
  store ptr %8, ptr %0, align 8, !alias.scope !24
  br label %_ZNK15FilterIcpPlugin10filterInfoEi.exit

_ZNK15FilterIcpPlugin10filterInfoEi.exit:         ; preds = %4, %5, %6, %7
  ret void
}